target datalayout = "e-m:e-p270:32:32-p271:32:32-p272:64:64-i64:64-i128:128-f80:128-n8:16:32:64-S128"
target triple = "x86_64-unknown-linux-gnu"

%"struct.node::AssertionInfo" = type { ptr, ptr, ptr }
%"class.v8::Local" = type { %"class.v8::LocalBase" }
%"class.v8::LocalBase" = type { %"class.v8::IndirectHandleBase" }
%"class.v8::IndirectHandleBase" = type { ptr }
%"class.v8::Local.0" = type { %"class.v8::LocalBase.1" }
%"class.v8::LocalBase.1" = type { %"class.v8::IndirectHandleBase" }
%"class.v8::Local.2" = type { %"class.v8::LocalBase.3" }
%"class.v8::LocalBase.3" = type { %"class.v8::IndirectHandleBase" }
%"class.v8::Local.4" = type { %"class.v8::LocalBase.5" }
%"class.v8::LocalBase.5" = type { %"class.v8::IndirectHandleBase" }

@_ZZN4node6Buffer4DataEN2v85LocalINS1_5ValueEEEE4args = internal constant %"struct.node::AssertionInfo" { ptr @.str, ptr @.str.1, ptr @.str.2 }, align 8

; Function Attrs: mustprogress nounwind uwtable
define dso_local noundef ptr @_ZN4node6Buffer4DataEN2v85LocalINS1_5ValueEEE(ptr %val.coerce) #4 {
entry:
  %slot.addr.i56 = alloca ptr, align 8
  %slot.addr.i55 = alloca ptr, align 8
  %this.addr.i.i50 = alloca ptr, align 8
  %this.addr.i51 = alloca ptr, align 8
  %this.addr.i.i46 = alloca ptr, align 8
  %this.addr.i47 = alloca ptr, align 8
  %this.addr.i43 = alloca ptr, align 8
  %other.addr.i44 = alloca ptr, align 8
  %this.addr.i41 = alloca ptr, align 8
  %other.addr.i = alloca ptr, align 8
  %retval.i40 = alloca %"class.v8::Local.2", align 8
  %that.i = alloca %"class.v8::Local", align 8
  %ref.tmp.i = alloca %"class.v8::LocalBase.3", align 8
  %slot.addr.i39 = alloca ptr, align 8
  %this.addr.i.i35 = alloca ptr, align 8
  %this.addr.i36 = alloca ptr, align 8
  %slot.addr.i = alloca ptr, align 8
  %this.addr.i.i = alloca ptr, align 8
  %this.addr.i33 = alloca ptr, align 8
  %this.addr.i30 = alloca ptr, align 8
  %this.addr.i27 = alloca ptr, align 8
  %this.addr.i24 = alloca ptr, align 8
  %retval.i = alloca %"class.v8::Local.2", align 8
  %this.addr.i21 = alloca ptr, align 8
  %agg.tmp.i = alloca %"class.v8::Local", align 8
  %this.addr.i = alloca ptr, align 8
  %val = alloca %"class.v8::Local", align 8
  %ui = alloca %"class.v8::Local.2", align 8
  %ref.tmp = alloca %"class.v8::Local.4", align 8
  %coerce.dive = getelementptr inbounds %"class.v8::Local", ptr %val, i32 0, i32 0
  %coerce.dive1 = getelementptr inbounds %"class.v8::LocalBase", ptr %coerce.dive, i32 0, i32 0
  %coerce.dive2 = getelementptr inbounds %"class.v8::IndirectHandleBase", ptr %coerce.dive1, i32 0, i32 0
  store ptr %val.coerce, ptr %coerce.dive2, align 8
  br label %do.body

do.body:                                          ; preds = %entry
  store ptr %val, ptr %this.addr.i, align 8
  %this1.i = load ptr, ptr %this.addr.i, align 8
  store ptr %this1.i, ptr %this.addr.i36, align 8
  %this1.i37 = load ptr, ptr %this.addr.i36, align 8
  store ptr %this1.i37, ptr %this.addr.i.i35, align 8
  %this1.i.i38 = load ptr, ptr %this.addr.i.i35, align 8
  %0 = load ptr, ptr %this1.i.i38, align 8
  store ptr %0, ptr %slot.addr.i39, align 8
  %1 = load ptr, ptr %slot.addr.i39, align 8
  %call3 = call noundef zeroext i1 @_ZNK2v85Value17IsArrayBufferViewEv(ptr noundef nonnull align 1 dereferenceable(1) %1)
  %lnot = xor i1 %call3, true
  %lnot4 = xor i1 %lnot, true
  %lnot5 = xor i1 %lnot4, true
  br i1 %lnot5, label %if.then, label %if.end

if.then:                                          ; preds = %do.body
  br label %do.body6

do.body6:                                         ; preds = %if.then
  call void @_ZN4node6AssertERKNS_13AssertionInfoE(ptr noundef nonnull align 8 dereferenceable(24) @_ZZN4node6Buffer4DataEN2v85LocalINS1_5ValueEEEE4args)
  call void @abort() #15
  unreachable

do.end:                                           ; No predecessors!
  br label %if.end

if.end:                                           ; preds = %do.end, %do.body
  br label %do.end7

do.end7:                                          ; preds = %if.end
  store ptr %val, ptr %this.addr.i21, align 8
  %this1.i22 = load ptr, ptr %this.addr.i21, align 8
  call void @llvm.memcpy.p0.p0.i64(ptr align 8 %agg.tmp.i, ptr align 8 %this1.i22, i64 8, i1 false)
  %2 = load ptr, ptr %agg.tmp.i, align 8
  store ptr %2, ptr %that.i, align 8
  store ptr %ref.tmp.i, ptr %this.addr.i41, align 8
  store ptr %that.i, ptr %other.addr.i, align 8
  %this1.i42 = load ptr, ptr %this.addr.i41, align 8
  %3 = load ptr, ptr %other.addr.i, align 8
  call void @llvm.memcpy.p0.p0.i64(ptr align 8 %this1.i42, ptr align 8 %3, i64 8, i1 false)
  store ptr %retval.i40, ptr %this.addr.i43, align 8
  store ptr %ref.tmp.i, ptr %other.addr.i44, align 8
  %this1.i45 = load ptr, ptr %this.addr.i43, align 8
  %4 = load ptr, ptr %other.addr.i44, align 8
  call void @llvm.memcpy.p0.p0.i64(ptr align 8 %this1.i45, ptr align 8 %4, i64 8, i1 false)
  %5 = load ptr, ptr %retval.i40, align 8
  store ptr %5, ptr %retval.i, align 8
  %6 = load ptr, ptr %retval.i, align 8
  %coerce.dive9 = getelementptr inbounds %"class.v8::Local.2", ptr %ui, i32 0, i32 0
  %coerce.dive10 = getelementptr inbounds %"class.v8::LocalBase.3", ptr %coerce.dive9, i32 0, i32 0
  %coerce.dive11 = getelementptr inbounds %"class.v8::IndirectHandleBase", ptr %coerce.dive10, i32 0, i32 0
  store ptr %6, ptr %coerce.dive11, align 8
  store ptr %ui, ptr %this.addr.i27, align 8
  %this1.i28 = load ptr, ptr %this.addr.i27, align 8
  store ptr %this1.i28, ptr %this.addr.i47, align 8
  %this1.i48 = load ptr, ptr %this.addr.i47, align 8
  store ptr %this1.i48, ptr %this.addr.i.i46, align 8
  %this1.i.i49 = load ptr, ptr %this.addr.i.i46, align 8
  %7 = load ptr, ptr %this1.i.i49, align 8
  store ptr %7, ptr %slot.addr.i56, align 8
  %8 = load ptr, ptr %slot.addr.i56, align 8
  %call13 = call ptr @_ZN2v815ArrayBufferView6BufferEv(ptr noundef nonnull align 1 dereferenceable(1) %8)
  %coerce.dive14 = getelementptr inbounds %"class.v8::Local.4", ptr %ref.tmp, i32 0, i32 0
  %coerce.dive15 = getelementptr inbounds %"class.v8::LocalBase.5", ptr %coerce.dive14, i32 0, i32 0
  %coerce.dive16 = getelementptr inbounds %"class.v8::IndirectHandleBase", ptr %coerce.dive15, i32 0, i32 0
  store ptr %call13, ptr %coerce.dive16, align 8
  store ptr %ref.tmp, ptr %this.addr.i30, align 8
  %this1.i31 = load ptr, ptr %this.addr.i30, align 8
  store ptr %this1.i31, ptr %this.addr.i33, align 8
  %this1.i34 = load ptr, ptr %this.addr.i33, align 8
  store ptr %this1.i34, ptr %this.addr.i.i, align 8
  %this1.i.i = load ptr, ptr %this.addr.i.i, align 8
  %9 = load ptr, ptr %this1.i.i, align 8
  store ptr %9, ptr %slot.addr.i, align 8
  %10 = load ptr, ptr %slot.addr.i, align 8
  %call18 = call noundef ptr @_ZNK2v811ArrayBuffer4DataEv(ptr noundef nonnull align 1 dereferenceable(1) %10)
  store ptr %ui, ptr %this.addr.i24, align 8
  %this1.i25 = load ptr, ptr %this.addr.i24, align 8
  store ptr %this1.i25, ptr %this.addr.i51, align 8
  %this1.i52 = load ptr, ptr %this.addr.i51, align 8
  store ptr %this1.i52, ptr %this.addr.i.i50, align 8
  %this1.i.i53 = load ptr, ptr %this.addr.i.i50, align 8
  %11 = load ptr, ptr %this1.i.i53, align 8
  store ptr %11, ptr %slot.addr.i55, align 8
  %12 = load ptr, ptr %slot.addr.i55, align 8
  %call20 = call noundef i64 @_ZN2v815ArrayBufferView10ByteOffsetEv(ptr noundef nonnull align 1 dereferenceable(1) %12)
  %add.ptr = getelementptr inbounds i8, ptr %call18, i64 %call20
  ret ptr %add.ptr
}

; Function Attrs: mustprogress nounwind uwtable
define dso_local noundef ptr @_ZN4node6Buffer4DataEN2v85LocalINS1_6ObjectEEE(ptr %obj.coerce) #4 {
entry:
  %this.addr.i11 = alloca ptr, align 8
  %other.addr.i = alloca ptr, align 8
  %this.addr.i.i = alloca ptr, align 8
  %other.addr.i.i = alloca ptr, align 8
  %retval.i10 = alloca %"class.v8::Local", align 8
  %that.i = alloca %"class.v8::Local.0", align 8
  %ref.tmp.i = alloca %"class.v8::LocalBase", align 8
  %retval.i = alloca %"class.v8::Local", align 8
  %this.addr.i = alloca ptr, align 8
  %agg.tmp.i = alloca %"class.v8::Local.0", align 8
  %obj = alloca %"class.v8::Local.0", align 8
  %agg.tmp = alloca %"class.v8::Local", align 8
  %coerce.dive = getelementptr inbounds %"class.v8::Local.0", ptr %obj, i32 0, i32 0
  %coerce.dive1 = getelementptr inbounds %"class.v8::LocalBase.1", ptr %coerce.dive, i32 0, i32 0
  %coerce.dive2 = getelementptr inbounds %"class.v8::IndirectHandleBase", ptr %coerce.dive1, i32 0, i32 0
  store ptr %obj.coerce, ptr %coerce.dive2, align 8
  store ptr %obj, ptr %this.addr.i, align 8
  %this1.i = load ptr, ptr %this.addr.i, align 8
  call void @llvm.memcpy.p0.p0.i64(ptr align 8 %agg.tmp.i, ptr align 8 %this1.i, i64 8, i1 false)
  %0 = load ptr, ptr %agg.tmp.i, align 8
  store ptr %0, ptr %that.i, align 8
  store ptr %ref.tmp.i, ptr %this.addr.i11, align 8
  store ptr %that.i, ptr %other.addr.i, align 8
  %this1.i12 = load ptr, ptr %this.addr.i11, align 8
  %1 = load ptr, ptr %other.addr.i, align 8
  call void @llvm.memcpy.p0.p0.i64(ptr align 8 %this1.i12, ptr align 8 %1, i64 8, i1 false)
  store ptr %retval.i10, ptr %this.addr.i.i, align 8
  store ptr %ref.tmp.i, ptr %other.addr.i.i, align 8
  %this1.i.i = load ptr, ptr %this.addr.i.i, align 8
  %2 = load ptr, ptr %other.addr.i.i, align 8
  call void @llvm.memcpy.p0.p0.i64(ptr align 8 %this1.i.i, ptr align 8 %2, i64 8, i1 false)
  %3 = load ptr, ptr %retval.i10, align 8
  store ptr %3, ptr %retval.i, align 8
  %4 = load ptr, ptr %retval.i, align 8
  %coerce.dive3 = getelementptr inbounds %"class.v8::Local", ptr %agg.tmp, i32 0, i32 0
  %coerce.dive4 = getelementptr inbounds %"class.v8::LocalBase", ptr %coerce.dive3, i32 0, i32 0
  %coerce.dive5 = getelementptr inbounds %"class.v8::IndirectHandleBase", ptr %coerce.dive4, i32 0, i32 0
  store ptr %4, ptr %coerce.dive5, align 8
  %coerce.dive6 = getelementptr inbounds %"class.v8::Local", ptr %agg.tmp, i32 0, i32 0
  %coerce.dive7 = getelementptr inbounds %"class.v8::LocalBase", ptr %coerce.dive6, i32 0, i32 0
  %coerce.dive8 = getelementptr inbounds %"class.v8::IndirectHandleBase", ptr %coerce.dive7, i32 0, i32 0
  %5 = load ptr, ptr %coerce.dive8, align 8
  %call9 = call noundef ptr @_ZN4node6Buffer4DataEN2v85LocalINS1_5ValueEEE(ptr %5)
  ret ptr %call9
}