; Function Attrs: mustprogress nounwind uwtable
define dso_local noundef ptr @_ZN4node6Buffer4DataEN2v85LocalINS1_6ObjectEEE(ptr nonnull %obj.coerce) local_unnamed_addr #3 {
entry:
  %call3.i = tail call noundef zeroext i1 @_ZNK2v85Value17IsArrayBufferViewEv(ptr noundef nonnull align 1 dereferenceable(1) %obj.coerce) #22
  br i1 %call3.i, label %_ZN4node6Buffer4DataEN2v85LocalINS1_5ValueEEE.exit, label %do.body6.i

do.body6.i:                                       ; preds = %entry
  tail call void @_ZN4node6AssertERKNS_13AssertionInfoE(ptr noundef nonnull align 8 dereferenceable(24) @_ZZN4node6Buffer4DataEN2v85LocalINS1_5ValueEEEE4args) #22
  tail call void @abort() #23
  unreachable

_ZN4node6Buffer4DataEN2v85LocalINS1_5ValueEEE.exit: ; preds = %entry
  %call13.i = tail call ptr @_ZN2v815ArrayBufferView6BufferEv(ptr noundef nonnull align 1 dereferenceable(1) %obj.coerce) #22
  %call18.i = tail call noundef ptr @_ZNK2v811ArrayBuffer4DataEv(ptr noundef nonnull align 1 dereferenceable(1) %call13.i) #22
  %call20.i = tail call noundef i64 @_ZN2v815ArrayBufferView10ByteOffsetEv(ptr noundef nonnull align 1 dereferenceable(1) %obj.coerce) #22
  %add.ptr.i = getelementptr inbounds i8, ptr %call18.i, i64 %call20.i
  ret ptr %add.ptr.i
}